target datalayout = "e-m:e-p270:32:32-p271:32:32-p272:64:64-i64:64-i128:128-f80:128-n8:16:32:64-S128"
target triple = "x86_64-pc-linux-gnu"

%"class.llvm::dxil::ResourceInfo" = type { ptr, %"class.llvm::StringRef", i8, i32, %"struct.llvm::dxil::ResourceInfo::ResourceBinding", %union.anon, %union.anon.0, %"struct.llvm::dxil::ResourceInfo::MSInfo" }
%"class.llvm::StringRef" = type { ptr, i64 }
%"struct.llvm::dxil::ResourceInfo::ResourceBinding" = type { i32, i32, i32, i32 }
%union.anon = type { i32 }
%union.anon.0 = type { %"struct.llvm::dxil::ResourceInfo::StructInfo" }
%"struct.llvm::dxil::ResourceInfo::StructInfo" = type { i32, i32 }
%"struct.llvm::dxil::ResourceInfo::MSInfo" = type { i32 }
%"struct.llvm::MaybeAlign" = type { %"class.std::optional" }
%"class.std::optional" = type { %"struct.std::_Optional_base" }
%"struct.std::_Optional_base" = type { %"struct.std::_Optional_payload" }
%"struct.std::_Optional_payload" = type { %"struct.std::_Optional_payload_base" }
%"struct.std::_Optional_payload_base" = type { %"union.std::_Optional_payload_base<llvm::Align>::_Storage", i8 }
%"union.std::_Optional_payload_base<llvm::Align>::_Storage" = type { %"struct.std::_Optional_payload_base<llvm::Align>::_Empty_byte" }
%"struct.std::_Optional_payload_base<llvm::Align>::_Empty_byte" = type { i8 }
%"struct.llvm::Align" = type { i8 }
%"struct.llvm::dxil::ResourceInfo::UAVInfo" = type { i8, i8, i8 }

; Function Attrs: mustprogress nounwind uwtable
define linkonce_odr hidden noundef nonnull align 1 dereferenceable(1) ptr @_ZNSt22_Optional_payload_baseIN4llvm5AlignEE6_M_getEv(ptr noundef nonnull align 1 dereferenceable(2) %0) #0 comdat align 2 {
  %2 = alloca ptr, align 8
  store ptr %0, ptr %2, align 8
  %3 = load ptr, ptr %2, align 8
  %4 = getelementptr inbounds nuw %"struct.std::_Optional_payload_base", ptr %3, i32 0, i32 0
  ret ptr %4
}

; Function Attrs: mustprogress nounwind uwtable
define linkonce_odr hidden noundef nonnull align 1 dereferenceable(1) ptr @_ZNSt19_Optional_base_implIN4llvm5AlignESt14_Optional_baseIS1_Lb1ELb1EEE6_M_getEv(ptr noundef nonnull align 1 dereferenceable(1) %0) #0 comdat align 2 {
  %2 = alloca ptr, align 8
  store ptr %0, ptr %2, align 8
  %3 = load ptr, ptr %2, align 8
  br label %4

4:                                                ; preds = %1
  br label %5

5:                                                ; preds = %4
  %6 = getelementptr inbounds nuw %"struct.std::_Optional_base", ptr %3, i32 0, i32 0
  %7 = call noundef nonnull align 1 dereferenceable(1) ptr @_ZNSt22_Optional_payload_baseIN4llvm5AlignEE6_M_getEv(ptr noundef nonnull align 1 dereferenceable(2) %6) #13
  ret ptr %7
}

; Function Attrs: mustprogress nounwind uwtable
define linkonce_odr hidden noundef zeroext i1 @_ZNKSt19_Optional_base_implIN4llvm5AlignESt14_Optional_baseIS1_Lb1ELb1EEE13_M_is_engagedEv(ptr noundef nonnull align 1 dereferenceable(1) %0) #0 comdat align 2 {
  %2 = alloca ptr, align 8
  store ptr %0, ptr %2, align 8
  %3 = load ptr, ptr %2, align 8
  %4 = getelementptr inbounds nuw %"struct.std::_Optional_base", ptr %3, i32 0, i32 0
  %5 = getelementptr inbounds nuw %"struct.std::_Optional_payload_base", ptr %4, i32 0, i32 1
  %6 = load i8, ptr %5, align 1
  %7 = trunc i8 %6 to i1
  ret i1 %7
}

; Function Attrs: mustprogress nounwind uwtable
define linkonce_odr hidden noundef i32 @_ZN4llvm4Log2ENS_5AlignE(i8 %0) #0 comdat {
  %2 = alloca %"struct.llvm::Align", align 1
  %3 = getelementptr inbounds nuw %"struct.llvm::Align", ptr %2, i32 0, i32 0
  store i8 %0, ptr %3, align 1
  %4 = getelementptr inbounds nuw %"struct.llvm::Align", ptr %2, i32 0, i32 0
  %5 = load i8, ptr %4, align 1
  %6 = zext i8 %5 to i32
  ret i32 %6
}

; Function Attrs: mustprogress nounwind uwtable
define linkonce_odr hidden noundef nonnull align 1 dereferenceable(1) ptr @_ZNRSt8optionalIN4llvm5AlignEEdeEv(ptr noundef nonnull align 1 dereferenceable(2) %0) #0 comdat align 2 {
  %2 = alloca ptr, align 8
  store ptr %0, ptr %2, align 8
  %3 = load ptr, ptr %2, align 8
  %4 = call noundef nonnull align 1 dereferenceable(1) ptr @_ZNSt19_Optional_base_implIN4llvm5AlignESt14_Optional_baseIS1_Lb1ELb1EEE6_M_getEv(ptr noundef nonnull align 1 dereferenceable(1) %3) #13
  ret ptr %4
}

; Function Attrs: mustprogress nounwind uwtable
define linkonce_odr hidden noundef zeroext i1 @_ZNKSt8optionalIN4llvm5AlignEEcvbEv(ptr noundef nonnull align 1 dereferenceable(2) %0) #0 comdat align 2 {
  %2 = alloca ptr, align 8
  store ptr %0, ptr %2, align 8
  %3 = load ptr, ptr %2, align 8
  %4 = call noundef zeroext i1 @_ZNKSt19_Optional_base_implIN4llvm5AlignESt14_Optional_baseIS1_Lb1ELb1EEE13_M_is_engagedEv(ptr noundef nonnull align 1 dereferenceable(1) %3) #13
  ret i1 %4
}

; Function Attrs: mustprogress nounwind uwtable
define linkonce_odr hidden void @_ZN4llvm4dxil12ResourceInfo6setUAVEbbb(ptr noundef nonnull align 8 dereferenceable(64) %0, i1 noundef zeroext %1, i1 noundef zeroext %2, i1 noundef zeroext %3) #0 comdat align 2 {
  %5 = alloca ptr, align 8
  %6 = alloca i8, align 1
  %7 = alloca i8, align 1
  %8 = alloca i8, align 1
  store ptr %0, ptr %5, align 8
  %9 = zext i1 %1 to i8
  store i8 %9, ptr %6, align 1
  %10 = zext i1 %2 to i8
  store i8 %10, ptr %7, align 1
  %11 = zext i1 %3 to i8
  store i8 %11, ptr %8, align 1
  %12 = load ptr, ptr %5, align 8
  %13 = load i8, ptr %6, align 1
  %14 = trunc i8 %13 to i1
  %15 = getelementptr inbounds nuw %"class.llvm::dxil::ResourceInfo", ptr %12, i32 0, i32 5
  %16 = getelementptr inbounds nuw %"struct.llvm::dxil::ResourceInfo::UAVInfo", ptr %15, i32 0, i32 0
  %17 = zext i1 %14 to i8
  store i8 %17, ptr %16, align 8
  %18 = load i8, ptr %7, align 1
  %19 = trunc i8 %18 to i1
  %20 = getelementptr inbounds nuw %"class.llvm::dxil::ResourceInfo", ptr %12, i32 0, i32 5
  %21 = getelementptr inbounds nuw %"struct.llvm::dxil::ResourceInfo::UAVInfo", ptr %20, i32 0, i32 1
  %22 = zext i1 %19 to i8
  store i8 %22, ptr %21, align 1
  %23 = load i8, ptr %8, align 1
  %24 = trunc i8 %23 to i1
  %25 = getelementptr inbounds nuw %"class.llvm::dxil::ResourceInfo", ptr %12, i32 0, i32 5
  %26 = getelementptr inbounds nuw %"struct.llvm::dxil::ResourceInfo::UAVInfo", ptr %25, i32 0, i32 2
  %27 = zext i1 %24 to i8
  store i8 %27, ptr %26, align 2
  ret void
}

; Function Attrs: mustprogress nounwind uwtable
define linkonce_odr hidden void @_ZN4llvm4dxil12ResourceInfo9setStructEjNS_10MaybeAlignE(ptr noundef nonnull align 8 dereferenceable(64) %0, i32 noundef %1, i16 %2) #0 comdat align 2 {
  %4 = alloca %"struct.llvm::MaybeAlign", align 1
  %5 = alloca ptr, align 8
  %6 = alloca i32, align 4
  %7 = alloca %"struct.llvm::Align", align 1
  %8 = getelementptr inbounds nuw %"struct.llvm::MaybeAlign", ptr %4, i32 0, i32 0
  %9 = getelementptr inbounds nuw %"class.std::optional", ptr %8, i32 0, i32 0
  %10 = getelementptr inbounds nuw %"struct.std::_Optional_base", ptr %9, i32 0, i32 0
  %11 = getelementptr inbounds nuw %"struct.std::_Optional_payload", ptr %10, i32 0, i32 0
  store i16 %2, ptr %11, align 1
  store ptr %0, ptr %5, align 8
  store i32 %1, ptr %6, align 4
  %12 = load ptr, ptr %5, align 8
  %13 = load i32, ptr %6, align 4
  %14 = getelementptr inbounds nuw %"class.llvm::dxil::ResourceInfo", ptr %12, i32 0, i32 6
  %15 = getelementptr inbounds nuw %"struct.llvm::dxil::ResourceInfo::StructInfo", ptr %14, i32 0, i32 0
  store i32 %13, ptr %15, align 4
  %16 = call noundef zeroext i1 @_ZNKSt8optionalIN4llvm5AlignEEcvbEv(ptr noundef nonnull align 1 dereferenceable(2) %4) #13
  br i1 %16, label %17, label %22

17:                                               ; preds = %3
  %18 = call noundef nonnull align 1 dereferenceable(1) ptr @_ZNRSt8optionalIN4llvm5AlignEEdeEv(ptr noundef nonnull align 1 dereferenceable(2) %4) #13
  call void @llvm.memcpy.p0.p0.i64(ptr align 1 %7, ptr align 1 %18, i64 1, i1 false)
  %19 = getelementptr inbounds nuw %"struct.llvm::Align", ptr %7, i32 0, i32 0
  %20 = load i8, ptr %19, align 1
  %21 = call noundef i32 @_ZN4llvm4Log2ENS_5AlignE(i8 %20)
  br label %23

22:                                               ; preds = %3
  br label %23

23:                                               ; preds = %22, %17
  %24 = phi i32 [ %21, %17 ], [ 0, %22 ]
  %25 = getelementptr inbounds nuw %"class.llvm::dxil::ResourceInfo", ptr %12, i32 0, i32 6
  %26 = getelementptr inbounds nuw %"struct.llvm::dxil::ResourceInfo::StructInfo", ptr %25, i32 0, i32 1
  store i32 %24, ptr %26, align 4
  ret void
}

; Function Attrs: mustprogress nounwind uwtable
define linkonce_odr hidden void @_ZN4llvm4dxil12ResourceInfoC2ENS0_13ResourceClassENS0_12ResourceKindEPNS_5ValueENS_9StringRefE(ptr noundef nonnull align 8 dereferenceable(64) %0, i8 noundef zeroext %1, i32 noundef %2, ptr noundef %3, ptr %4, i64 %5) unnamed_addr #0 comdat align 2 {
  %7 = alloca %"class.llvm::StringRef", align 8
  %8 = alloca ptr, align 8
  %9 = alloca i8, align 1
  %10 = alloca i32, align 4
  %11 = alloca ptr, align 8
  %12 = getelementptr inbounds nuw { ptr, i64 }, ptr %7, i32 0, i32 0
  store ptr %4, ptr %12, align 8
  %13 = getelementptr inbounds nuw { ptr, i64 }, ptr %7, i32 0, i32 1
  store i64 %5, ptr %13, align 8
  store ptr %0, ptr %8, align 8
  store i8 %1, ptr %9, align 1
  store i32 %2, ptr %10, align 4
  store ptr %3, ptr %11, align 8
  %14 = load ptr, ptr %8, align 8
  %15 = getelementptr inbounds nuw %"class.llvm::dxil::ResourceInfo", ptr %14, i32 0, i32 0
  %16 = load ptr, ptr %11, align 8
  store ptr %16, ptr %15, align 8
  %17 = getelementptr inbounds nuw %"class.llvm::dxil::ResourceInfo", ptr %14, i32 0, i32 1
  call void @llvm.memcpy.p0.p0.i64(ptr align 8 %17, ptr align 8 %7, i64 16, i1 false)
  %18 = getelementptr inbounds nuw %"class.llvm::dxil::ResourceInfo", ptr %14, i32 0, i32 2
  %19 = load i8, ptr %9, align 1
  store i8 %19, ptr %18, align 8
  %20 = getelementptr inbounds nuw %"class.llvm::dxil::ResourceInfo", ptr %14, i32 0, i32 3
  %21 = load i32, ptr %10, align 4
  store i32 %21, ptr %20, align 4
  %22 = getelementptr inbounds nuw %"class.llvm::dxil::ResourceInfo", ptr %14, i32 0, i32 4
  %23 = getelementptr inbounds nuw %"struct.llvm::dxil::ResourceInfo::ResourceBinding", ptr %22, i32 0, i32 0
  store i32 0, ptr %23, align 8
  %24 = getelementptr inbounds nuw %"struct.llvm::dxil::ResourceInfo::ResourceBinding", ptr %22, i32 0, i32 1
  store i32 0, ptr %24, align 4
  %25 = getelementptr inbounds nuw %"struct.llvm::dxil::ResourceInfo::ResourceBinding", ptr %22, i32 0, i32 2
  store i32 0, ptr %25, align 8
  %26 = getelementptr inbounds nuw %"struct.llvm::dxil::ResourceInfo::ResourceBinding", ptr %22, i32 0, i32 3
  store i32 0, ptr %26, align 4
  ret void
}

; Function Attrs: mustprogress nounwind uwtable
define dso_local void @_ZN4llvm4dxil12ResourceInfo18RWStructuredBufferEPNS_5ValueENS_9StringRefEjNS_10MaybeAlignEbbb(ptr dead_on_unwind noalias writable sret(%"class.llvm::dxil::ResourceInfo") align 8 %0, ptr noundef %1, ptr %2, i64 %3, i32 noundef %4, i16 %5, i1 noundef zeroext %6, i1 noundef zeroext %7, i1 noundef zeroext %8) #0 align 2 {
  %10 = alloca %"class.llvm::StringRef", align 8
  %11 = alloca %"struct.llvm::MaybeAlign", align 1
  %12 = alloca ptr, align 8
  %13 = alloca i32, align 4
  %14 = alloca i8, align 1
  %15 = alloca i8, align 1
  %16 = alloca i8, align 1
  %17 = alloca %"class.llvm::StringRef", align 8
  %18 = alloca %"struct.llvm::MaybeAlign", align 1
  %19 = getelementptr inbounds nuw { ptr, i64 }, ptr %10, i32 0, i32 0
  store ptr %2, ptr %19, align 8
  %20 = getelementptr inbounds nuw { ptr, i64 }, ptr %10, i32 0, i32 1
  store i64 %3, ptr %20, align 8
  %21 = getelementptr inbounds nuw %"struct.llvm::MaybeAlign", ptr %11, i32 0, i32 0
  %22 = getelementptr inbounds nuw %"class.std::optional", ptr %21, i32 0, i32 0
  %23 = getelementptr inbounds nuw %"struct.std::_Optional_base", ptr %22, i32 0, i32 0
  %24 = getelementptr inbounds nuw %"struct.std::_Optional_payload", ptr %23, i32 0, i32 0
  store i16 %5, ptr %24, align 1
  store ptr %1, ptr %12, align 8
  store i32 %4, ptr %13, align 4
  %25 = zext i1 %6 to i8
  store i8 %25, ptr %14, align 1
  %26 = zext i1 %7 to i8
  store i8 %26, ptr %15, align 1
  %27 = zext i1 %8 to i8
  store i8 %27, ptr %16, align 1
  %28 = load ptr, ptr %12, align 8
  call void @llvm.memcpy.p0.p0.i64(ptr align 8 %17, ptr align 8 %10, i64 16, i1 false)
  %29 = getelementptr inbounds nuw { ptr, i64 }, ptr %17, i32 0, i32 0
  %30 = load ptr, ptr %29, align 8
  %31 = getelementptr inbounds nuw { ptr, i64 }, ptr %17, i32 0, i32 1
  %32 = load i64, ptr %31, align 8
  call void @_ZN4llvm4dxil12ResourceInfoC2ENS0_13ResourceClassENS0_12ResourceKindEPNS_5ValueENS_9StringRefE(ptr noundef nonnull align 8 dereferenceable(64) %0, i8 noundef zeroext 1, i32 noundef 12, ptr noundef %28, ptr %30, i64 %32)
  %33 = load i32, ptr %13, align 4
  call void @llvm.memcpy.p0.p0.i64(ptr align 1 %18, ptr align 1 %11, i64 2, i1 false)
  %34 = getelementptr inbounds nuw %"struct.llvm::MaybeAlign", ptr %18, i32 0, i32 0
  %35 = getelementptr inbounds nuw %"class.std::optional", ptr %34, i32 0, i32 0
  %36 = getelementptr inbounds nuw %"struct.std::_Optional_base", ptr %35, i32 0, i32 0
  %37 = getelementptr inbounds nuw %"struct.std::_Optional_payload", ptr %36, i32 0, i32 0
  %38 = load i16, ptr %37, align 1
  call void @_ZN4llvm4dxil12ResourceInfo9setStructEjNS_10MaybeAlignE(ptr noundef nonnull align 8 dereferenceable(64) %0, i32 noundef %33, i16 %38)
  %39 = load i8, ptr %14, align 1
  %40 = trunc i8 %39 to i1
  %41 = load i8, ptr %16, align 1
  %42 = trunc i8 %41 to i1
  %43 = load i8, ptr %15, align 1
  %44 = trunc i8 %43 to i1
  call void @_ZN4llvm4dxil12ResourceInfo6setUAVEbbb(ptr noundef nonnull align 8 dereferenceable(64) %0, i1 noundef zeroext %40, i1 noundef zeroext %42, i1 noundef zeroext %44)
  ret void
}