; Function Attrs: mustprogress nofree norecurse nosync nounwind willreturn memory(argmem: write) uwtable
define dso_local void @_ZN4llvm4dxil12ResourceInfo18RWStructuredBufferEPNS_5ValueENS_9StringRefEjNS_10MaybeAlignEbbb(ptr dead_on_unwind noalias nocapture writable writeonly sret(%"class.llvm::dxil::ResourceInfo") align 8 %0, ptr noundef %1, ptr %2, i64 %3, i32 noundef %4, i16 %5, i1 noundef zeroext %6, i1 noundef zeroext %7, i1 noundef zeroext %8) local_unnamed_addr #1 align 2 {
  store ptr %1, ptr %0, align 8
  %10 = getelementptr inbounds nuw i8, ptr %0, i64 8
  store ptr %2, ptr %10, align 8
  %.sroa.2.0..sroa_idx.i = getelementptr inbounds i8, ptr %0, i64 16
  store i64 %3, ptr %.sroa.2.0..sroa_idx.i, align 8
  %11 = getelementptr inbounds nuw i8, ptr %0, i64 24
  store i8 1, ptr %11, align 8
  %12 = getelementptr inbounds nuw i8, ptr %0, i64 28
  store i32 12, ptr %12, align 4
  %13 = getelementptr inbounds nuw i8, ptr %0, i64 32
  tail call void @llvm.memset.p0.i64(ptr noundef nonnull align 8 dereferenceable(16) %13, i8 0, i64 16, i1 false)
  %14 = getelementptr inbounds nuw i8, ptr %0, i64 52
  store i32 %4, ptr %14, align 4
  %15 = and i16 %5, 256
  %.not.i = icmp eq i16 %15, 0
  %16 = and i16 %5, 255
  %narrow.i = select i1 %.not.i, i16 0, i16 %16
  %17 = zext nneg i16 %narrow.i to i32
  %18 = getelementptr inbounds i8, ptr %0, i64 56
  store i32 %17, ptr %18, align 8
  %19 = zext i1 %6 to i8
  %20 = zext i1 %8 to i8
  %21 = zext i1 %7 to i8
  %22 = getelementptr inbounds nuw i8, ptr %0, i64 48
  store i8 %19, ptr %22, align 8
  %23 = getelementptr inbounds i8, ptr %0, i64 49
  store i8 %20, ptr %23, align 1
  %24 = getelementptr inbounds i8, ptr %0, i64 50
  store i8 %21, ptr %24, align 2
  ret void
}